target datalayout = "e-m:e-p270:32:32-p271:32:32-p272:64:64-i64:64-i128:128-f80:128-n8:16:32:64-S128"
target triple = "x86_64-pc-linux-gnu"

%"class.sls::arith_plugin" = type { %"class.sls::plugin.base", %class.scoped_ptr, %class.scoped_ptr.0, %class.ref_vector }
%"class.sls::plugin.base" = type <{ ptr, ptr, ptr, i32 }>
%class.scoped_ptr = type { ptr }
%class.scoped_ptr.0 = type { ptr }
%class.ref_vector = type { %class.ref_vector_core }
%class.ref_vector_core = type { %class.ref_manager_wrapper, %class.ptr_vector }
%class.ref_manager_wrapper = type { ptr }
%class.ptr_vector = type { %class.vector }
%class.vector = type { ptr }
%"class.std::ios_base" = type { ptr, i64, i64, i32, i32, i32, ptr, %"struct.std::ios_base::_Words", [8 x %"struct.std::ios_base::_Words"], i32, ptr, %"class.std::locale" }
%"struct.std::ios_base::_Words" = type { ptr, i64 }
%"class.std::locale" = type { ptr }

@_ZTI18overflow_exception = linkonce_odr hidden constant { ptr, ptr, ptr } { ptr getelementptr inbounds (ptr, ptr @_ZTVN10__cxxabiv120__si_class_type_infoE, i64 2), ptr @_ZTS18overflow_exception, ptr @_ZTI12z3_exception }, comdat, align 8
@.str = private unnamed_addr constant [25 x i8] c"revert to bignum solver \00", align 1
@.str.2 = private unnamed_addr constant [2 x i8] c"\0A\00", align 1
@.str.10 = private unnamed_addr constant [13 x i8] c"on_rescale()\00", align 1

; Function Attrs: mustprogress uwtable
define linkonce_odr hidden void @_Z7deallocIN3sls10arith_baseI13checked_int64ILb1EEEEEvPT_(ptr noundef %0) #4 comdat {
  %2 = alloca ptr, align 8
  store ptr %0, ptr %2, align 8, !tbaa !18
  %3 = load ptr, ptr %2, align 8, !tbaa !18
  %4 = icmp eq ptr %3, null
  br i1 %4, label %5, label %6

5:                                                ; preds = %1
  br label %12

6:                                                ; preds = %1
  %7 = load ptr, ptr %2, align 8, !tbaa !18
  %8 = load ptr, ptr %7, align 8, !tbaa !10
  %9 = getelementptr inbounds ptr, ptr %8, i64 0
  %10 = load ptr, ptr %9, align 8
  call void %10(ptr noundef nonnull align 8 dereferenceable(672) %7) #3
  %11 = load ptr, ptr %2, align 8, !tbaa !18
  call void @_ZN6memory10deallocateEPv(ptr noundef %11)
  br label %12

12:                                               ; preds = %6, %5
  ret void
}

; Function Attrs: inlinehint mustprogress nounwind uwtable
define linkonce_odr noundef i32 @_ZStorSt12_Ios_IostateS_(i32 noundef %0, i32 noundef %1) #12 comdat {
  %3 = alloca i32, align 4
  %4 = alloca i32, align 4
  store i32 %0, ptr %3, align 4, !tbaa !101
  store i32 %1, ptr %4, align 4, !tbaa !101
  %5 = load i32, ptr %3, align 4, !tbaa !101
  %6 = load i32, ptr %4, align 4, !tbaa !101
  %7 = or i32 %5, %6
  ret i32 %7
}

; Function Attrs: mustprogress nounwind uwtable
define available_externally noundef i32 @_ZNKSt9basic_iosIcSt11char_traitsIcEE7rdstateEv(ptr noundef nonnull align 8 dereferenceable(264) %0) #5 align 2 {
  %2 = alloca ptr, align 8
  store ptr %0, ptr %2, align 8, !tbaa !99
  %3 = load ptr, ptr %2, align 8
  %4 = getelementptr inbounds nuw %"class.std::ios_base", ptr %3, i32 0, i32 5
  %5 = load i32, ptr %4, align 8, !tbaa !103
  ret i32 %5
}

; Function Attrs: mustprogress uwtable
define linkonce_odr hidden noundef nonnull align 8 dereferenceable(8) ptr @_ZN10scoped_ptrIN3sls10arith_baseI13checked_int64ILb1EEEEEaSEPS4_(ptr noundef nonnull align 8 dereferenceable(8) %0, ptr noundef %1) #4 comdat align 2 {
  %3 = alloca ptr, align 8
  %4 = alloca ptr, align 8
  store ptr %0, ptr %3, align 8, !tbaa !16
  store ptr %1, ptr %4, align 8, !tbaa !18
  %5 = load ptr, ptr %3, align 8
  %6 = getelementptr inbounds nuw %class.scoped_ptr, ptr %5, i32 0, i32 0
  %7 = load ptr, ptr %6, align 8, !tbaa !20
  %8 = load ptr, ptr %4, align 8, !tbaa !18
  %9 = icmp ne ptr %7, %8
  br i1 %9, label %10, label %15

10:                                               ; preds = %2
  %11 = getelementptr inbounds nuw %class.scoped_ptr, ptr %5, i32 0, i32 0
  %12 = load ptr, ptr %11, align 8, !tbaa !20
  call void @_Z7deallocIN3sls10arith_baseI13checked_int64ILb1EEEEEvPT_(ptr noundef %12)
  %13 = load ptr, ptr %4, align 8, !tbaa !18
  %14 = getelementptr inbounds nuw %class.scoped_ptr, ptr %5, i32 0, i32 0
  store ptr %13, ptr %14, align 8, !tbaa !20
  br label %15

15:                                               ; preds = %10, %2
  ret ptr %5
}

; Function Attrs: mustprogress nounwind uwtable
define linkonce_odr hidden noundef i64 @_ZNSt11char_traitsIcE6lengthEPKc(ptr noundef %0) #5 comdat align 2 {
  %2 = alloca ptr, align 8
  store ptr %0, ptr %2, align 8, !tbaa !74
  %3 = load ptr, ptr %2, align 8, !tbaa !74
  %4 = call i64 @strlen(ptr noundef %3) #3
  ret i64 %4
}

; Function Attrs: mustprogress uwtable
define available_externally void @_ZNSt9basic_iosIcSt11char_traitsIcEE8setstateESt12_Ios_Iostate(ptr noundef nonnull align 8 dereferenceable(264) %0, i32 noundef %1) #4 align 2 {
  %3 = alloca ptr, align 8
  %4 = alloca i32, align 4
  store ptr %0, ptr %3, align 8, !tbaa !99
  store i32 %1, ptr %4, align 4, !tbaa !101
  %5 = load ptr, ptr %3, align 8
  %6 = call noundef i32 @_ZNKSt9basic_iosIcSt11char_traitsIcEE7rdstateEv(ptr noundef nonnull align 8 dereferenceable(264) %5)
  %7 = load i32, ptr %4, align 4, !tbaa !101
  %8 = call noundef i32 @_ZStorSt12_Ios_IostateS_(i32 noundef %6, i32 noundef %7)
  call void @_ZNSt9basic_iosIcSt11char_traitsIcEE5clearESt12_Ios_Iostate(ptr noundef nonnull align 8 dereferenceable(264) %5, i32 noundef %8)
  ret void
}

; Function Attrs: mustprogress nounwind uwtable
define linkonce_odr hidden noundef ptr @_ZNK10scoped_ptrIN3sls10arith_baseI8rationalEEEptEv(ptr noundef nonnull align 8 dereferenceable(8) %0) #5 comdat align 2 {
  %2 = alloca ptr, align 8
  store ptr %0, ptr %2, align 8, !tbaa !22
  %3 = load ptr, ptr %2, align 8
  %4 = getelementptr inbounds nuw %class.scoped_ptr.0, ptr %3, i32 0, i32 0
  %5 = load ptr, ptr %4, align 8, !tbaa !26
  ret ptr %5
}

; Function Attrs: mustprogress uwtable
define hidden void @_ZN3sls12arith_plugin11init_backupEv(ptr noundef nonnull align 8 dereferenceable(64) %0) #4 align 2 {
  %2 = alloca ptr, align 8
  store ptr %0, ptr %2, align 8, !tbaa !3
  %3 = load ptr, ptr %2, align 8
  %4 = getelementptr inbounds nuw %"class.sls::arith_plugin", ptr %3, i32 0, i32 1
  %5 = call noundef nonnull align 8 dereferenceable(8) ptr @_ZN10scoped_ptrIN3sls10arith_baseI13checked_int64ILb1EEEEEaSEPS4_(ptr noundef nonnull align 8 dereferenceable(8) %4, ptr noundef null)
  ret void
}

; Function Attrs: inlinehint mustprogress uwtable
define available_externally noundef nonnull align 8 dereferenceable(8) ptr @_ZStlsISt11char_traitsIcEERSt13basic_ostreamIcT_ES5_PKc(ptr noundef nonnull align 8 dereferenceable(8) %0, ptr noundef %1) #8 {
  %3 = alloca ptr, align 8
  %4 = alloca ptr, align 8
  store ptr %0, ptr %3, align 8, !tbaa !72
  store ptr %1, ptr %4, align 8, !tbaa !74
  %5 = load ptr, ptr %4, align 8, !tbaa !74
  %6 = icmp ne ptr %5, null
  br i1 %6, label %13, label %7

7:                                                ; preds = %2
  %8 = load ptr, ptr %3, align 8, !tbaa !72
  %9 = load ptr, ptr %8, align 8, !tbaa !10
  %10 = getelementptr i8, ptr %9, i64 -24
  %11 = load i64, ptr %10, align 8
  %12 = getelementptr inbounds i8, ptr %8, i64 %11
  call void @_ZNSt9basic_iosIcSt11char_traitsIcEE8setstateESt12_Ios_Iostate(ptr noundef nonnull align 8 dereferenceable(264) %12, i32 noundef 1)
  br label %19

13:                                               ; preds = %2
  %14 = load ptr, ptr %3, align 8, !tbaa !72
  %15 = load ptr, ptr %4, align 8, !tbaa !74
  %16 = load ptr, ptr %4, align 8, !tbaa !74
  %17 = call noundef i64 @_ZNSt11char_traitsIcE6lengthEPKc(ptr noundef %16)
  %18 = call noundef nonnull align 8 dereferenceable(8) ptr @_ZSt16__ostream_insertIcSt11char_traitsIcEERSt13basic_ostreamIT_T0_ES6_PKS3_l(ptr noundef nonnull align 8 dereferenceable(8) %14, ptr noundef %15, i64 noundef %17)
  br label %19

19:                                               ; preds = %13, %7
  %20 = load ptr, ptr %3, align 8, !tbaa !72
  ret ptr %20
}

; Function Attrs: mustprogress nounwind uwtable
define linkonce_odr hidden noundef ptr @_ZNK10scoped_ptrIN3sls10arith_baseI13checked_int64ILb1EEEEEptEv(ptr noundef nonnull align 8 dereferenceable(8) %0) #5 comdat align 2 {
  %2 = alloca ptr, align 8
  store ptr %0, ptr %2, align 8, !tbaa !16
  %3 = load ptr, ptr %2, align 8
  %4 = getelementptr inbounds nuw %class.scoped_ptr, ptr %3, i32 0, i32 0
  %5 = load ptr, ptr %4, align 8, !tbaa !20
  ret ptr %5
}

; Function Attrs: mustprogress nounwind uwtable
define linkonce_odr hidden noundef zeroext i1 @_ZNK10scoped_ptrIN3sls10arith_baseI13checked_int64ILb1EEEEEcvbEv(ptr noundef nonnull align 8 dereferenceable(8) %0) #5 comdat align 2 {
  %2 = alloca ptr, align 8
  store ptr %0, ptr %2, align 8, !tbaa !16
  %3 = load ptr, ptr %2, align 8
  %4 = getelementptr inbounds nuw %class.scoped_ptr, ptr %3, i32 0, i32 0
  %5 = load ptr, ptr %4, align 8, !tbaa !20
  %6 = icmp ne ptr %5, null
  ret i1 %6
}

; Function Attrs: mustprogress uwtable
define hidden void @_ZN3sls12arith_plugin10on_rescaleEv(ptr noundef nonnull align 8 dereferenceable(64) %0) unnamed_addr #4 align 2 personality ptr @__gxx_personality_v0 {
  %2 = alloca ptr, align 8
  %3 = alloca ptr, align 8
  %4 = alloca i32, align 4
  %5 = alloca ptr, align 8
  store ptr %0, ptr %2, align 8, !tbaa !3
  %6 = load ptr, ptr %2, align 8
  %7 = getelementptr inbounds nuw %"class.sls::arith_plugin", ptr %6, i32 0, i32 1
  %8 = call noundef zeroext i1 @_ZNK10scoped_ptrIN3sls10arith_baseI13checked_int64ILb1EEEEEcvbEv(ptr noundef nonnull align 8 dereferenceable(8) %7)
  br i1 %8, label %9, label %63

9:                                                ; preds = %1
  %10 = getelementptr inbounds nuw %"class.sls::arith_plugin", ptr %6, i32 0, i32 1
  %11 = invoke noundef ptr @_ZNK10scoped_ptrIN3sls10arith_baseI13checked_int64ILb1EEEEEptEv(ptr noundef nonnull align 8 dereferenceable(8) %10)
          to label %12 unwind label %17

12:                                               ; preds = %9
  %13 = load ptr, ptr %11, align 8, !tbaa !10
  %14 = getelementptr inbounds ptr, ptr %13, i64 14
  %15 = load ptr, ptr %14, align 8
  invoke void %15(ptr noundef nonnull align 8 dereferenceable(672) %11)
          to label %16 unwind label %17

16:                                               ; preds = %12
  br label %61

17:                                               ; preds = %12, %9
  %18 = landingpad { ptr, i32 }
          catch ptr @_ZTI18overflow_exception
  %19 = extractvalue { ptr, i32 } %18, 0
  store ptr %19, ptr %3, align 8
  %20 = extractvalue { ptr, i32 } %18, 1
  store i32 %20, ptr %4, align 4
  br label %21

21:                                               ; preds = %17
  %22 = load i32, ptr %4, align 4
  %23 = call i32 @llvm.eh.typeid.for.p0(ptr @_ZTI18overflow_exception) #3
  %24 = icmp eq i32 %22, %23
  br i1 %24, label %25, label %69

25:                                               ; preds = %21
  call void @llvm.lifetime.start.p0(i64 8, ptr %5) #3
  %26 = load ptr, ptr %3, align 8
  %27 = call ptr @__cxa_begin_catch(ptr %26) #3
  store ptr %27, ptr %5, align 8
  %28 = invoke noundef i32 @_Z19get_verbosity_levelv()
          to label %29 unwind label %45

29:                                               ; preds = %25
  %30 = icmp uge i32 %28, 1
  br i1 %30, label %31, label %59

31:                                               ; preds = %29
  %32 = invoke noundef zeroext i1 @_Z11is_threadedv()
          to label %33 unwind label %45

33:                                               ; preds = %31
  br i1 %32, label %34, label %49

34:                                               ; preds = %33
  invoke void @_Z12verbose_lockv()
          to label %35 unwind label %45

35:                                               ; preds = %34
  %36 = invoke noundef nonnull align 8 dereferenceable(8) ptr @_Z14verbose_streamv()
          to label %37 unwind label %45

37:                                               ; preds = %35
  %38 = invoke noundef nonnull align 8 dereferenceable(8) ptr @_ZStlsISt11char_traitsIcEERSt13basic_ostreamIcT_ES5_PKc(ptr noundef nonnull align 8 dereferenceable(8) %36, ptr noundef @.str)
          to label %39 unwind label %45

39:                                               ; preds = %37
  %40 = invoke noundef nonnull align 8 dereferenceable(8) ptr @_ZStlsISt11char_traitsIcEERSt13basic_ostreamIcT_ES5_PKc(ptr noundef nonnull align 8 dereferenceable(8) %38, ptr noundef @.str.10)
          to label %41 unwind label %45

41:                                               ; preds = %39
  %42 = invoke noundef nonnull align 8 dereferenceable(8) ptr @_ZStlsISt11char_traitsIcEERSt13basic_ostreamIcT_ES5_PKc(ptr noundef nonnull align 8 dereferenceable(8) %40, ptr noundef @.str.2)
          to label %43 unwind label %45

43:                                               ; preds = %41
  invoke void @_Z14verbose_unlockv()
          to label %44 unwind label %45

44:                                               ; preds = %43
  br label %58

45:                                               ; preds = %59, %55, %53, %51, %49, %43, %41, %39, %37, %35, %34, %31, %25
  %46 = landingpad { ptr, i32 }
          cleanup
  %47 = extractvalue { ptr, i32 } %46, 0
  store ptr %47, ptr %3, align 8
  %48 = extractvalue { ptr, i32 } %46, 1
  store i32 %48, ptr %4, align 4
  invoke void @__cxa_end_catch()
          to label %62 unwind label %74

49:                                               ; preds = %33
  %50 = invoke noundef nonnull align 8 dereferenceable(8) ptr @_Z14verbose_streamv()
          to label %51 unwind label %45

51:                                               ; preds = %49
  %52 = invoke noundef nonnull align 8 dereferenceable(8) ptr @_ZStlsISt11char_traitsIcEERSt13basic_ostreamIcT_ES5_PKc(ptr noundef nonnull align 8 dereferenceable(8) %50, ptr noundef @.str)
          to label %53 unwind label %45

53:                                               ; preds = %51
  %54 = invoke noundef nonnull align 8 dereferenceable(8) ptr @_ZStlsISt11char_traitsIcEERSt13basic_ostreamIcT_ES5_PKc(ptr noundef nonnull align 8 dereferenceable(8) %52, ptr noundef @.str.10)
          to label %55 unwind label %45

55:                                               ; preds = %53
  %56 = invoke noundef nonnull align 8 dereferenceable(8) ptr @_ZStlsISt11char_traitsIcEERSt13basic_ostreamIcT_ES5_PKc(ptr noundef nonnull align 8 dereferenceable(8) %54, ptr noundef @.str.2)
          to label %57 unwind label %45

57:                                               ; preds = %55
  br label %58

58:                                               ; preds = %57, %44
  br label %59

59:                                               ; preds = %58, %29
  invoke void @_ZN3sls12arith_plugin11init_backupEv(ptr noundef nonnull align 8 dereferenceable(64) %6)
          to label %60 unwind label %45

60:                                               ; preds = %59
  call void @__cxa_end_catch()
  call void @llvm.lifetime.end.p0(i64 8, ptr %5) #3
  br label %61

61:                                               ; preds = %60, %16
  br label %63

62:                                               ; preds = %45
  call void @llvm.lifetime.end.p0(i64 8, ptr %5) #3
  br label %69

63:                                               ; preds = %61, %1
  %64 = getelementptr inbounds nuw %"class.sls::arith_plugin", ptr %6, i32 0, i32 2
  %65 = call noundef ptr @_ZNK10scoped_ptrIN3sls10arith_baseI8rationalEEEptEv(ptr noundef nonnull align 8 dereferenceable(8) %64)
  %66 = load ptr, ptr %65, align 8, !tbaa !10
  %67 = getelementptr inbounds ptr, ptr %66, i64 14
  %68 = load ptr, ptr %67, align 8
  call void %68(ptr noundef nonnull align 8 dereferenceable(792) %65)
  ret void

69:                                               ; preds = %62, %21
  %70 = load ptr, ptr %3, align 8
  %71 = load i32, ptr %4, align 4
  %72 = insertvalue { ptr, i32 } poison, ptr %70, 0
  %73 = insertvalue { ptr, i32 } %72, i32 %71, 1
  resume { ptr, i32 } %73

74:                                               ; preds = %45
  %75 = landingpad { ptr, i32 }
          catch ptr null
  %76 = extractvalue { ptr, i32 } %75, 0
  call void @__clang_call_terminate(ptr %76) #13
  unreachable
}